; Function Attrs: mustprogress nofree norecurse nosync nounwind willreturn memory(argmem: write) uwtable
define hidden void @_ZN6google8protobuf2io26CopyingOutputStreamAdaptorC2EPNS1_19CopyingOutputStreamEi(ptr noundef nonnull writeonly align 8 captures(none) dereferenceable(48) initializes((0, 18), (24, 48)) %0, ptr noundef %1, i32 noundef %2) unnamed_addr #3 align 2 personality ptr @__gxx_personality_v0 {
  store ptr getelementptr inbounds nuw inrange(-16, 56) (i8, ptr @_ZTVN6google8protobuf2io26CopyingOutputStreamAdaptorE, i64 16), ptr %0, align 8, !tbaa !3
  %4 = getelementptr inbounds nuw i8, ptr %0, i64 8
  store ptr %1, ptr %4, align 8, !tbaa !55
  %5 = getelementptr inbounds nuw i8, ptr %0, i64 16
  store i8 0, ptr %5, align 8, !tbaa !58
  %6 = getelementptr inbounds nuw i8, ptr %0, i64 17
  store i8 0, ptr %6, align 1, !tbaa !59
  %7 = getelementptr inbounds nuw i8, ptr %0, i64 24
  %8 = getelementptr inbounds nuw i8, ptr %0, i64 40
  %9 = icmp sgt i32 %2, 0
  %10 = select i1 %9, i32 %2, i32 8192
  tail call void @llvm.memset.p0.i64(ptr noundef nonnull align 8 dereferenceable(16) %7, i8 0, i64 16, i1 false)
  store i32 %10, ptr %8, align 8, !tbaa !60
  %11 = getelementptr inbounds nuw i8, ptr %0, i64 44
  store i32 0, ptr %11, align 4, !tbaa !61
  ret void
}